ccopy_reg
_reconstructor
p0
(cnltk.classify.naivebayes
NaiveBayesClassifier
p1
c__builtin__
object
p2
Ntp3
Rp4
(dp5
S'_labels'
p6
(lp7
S'neg'
p8
aS'pos'
p9
asS'_feature_probdist'
p10
(dp11
sS'_label_probdist'
p12
g0
(cnltk.probability
ELEProbDist
p13
g2
Ntp14
Rp15
(dp16
S'_gamma'
p17
F0.5
sS'_N'
p18
I10000
sS'_freqdist'
p19
cnltk.probability
FreqDist
p20
((dp21
g8
I4906
sg9
I5094
stp22
Rp23
sS'_bins'
p24
I2
sS'_divisor'
p25
F10001.0
sbsb.